target datalayout = "e-m:e-p270:32:32-p271:32:32-p272:64:64-i64:64-i128:128-f80:128-n8:16:32:64-S128"
target triple = "x86_64-pc-linux-gnu"

%struct.AVFilterContext = type { ptr, ptr, ptr, ptr, ptr, i32, ptr, ptr, i32, ptr, ptr, i32, i32, ptr, ptr, ptr, ptr, i32, ptr, i32, i32 }
%struct.NoiseContext = type { ptr, i32, [4 x i32], [4 x i32], %struct.FilterParams, [4 x %struct.FilterParams], ptr, ptr }
%struct.FilterParams = type { i32, i32, %struct.AVLFG, i32, ptr, [4096 x [3 x ptr]], [4096 x i32], i32 }
%struct.AVLFG = type { [64 x i32], i32 }
%struct.ThreadData = type { ptr, ptr }
%struct.AVFilterLink = type { ptr, ptr, ptr, ptr, i32, i32, i32, i32, %struct.AVRational, i32, i32, i32, %struct.AVChannelLayout, %struct.AVRational, ptr, i32, %struct.AVFilterFormatsConfig, %struct.AVFilterFormatsConfig }
%struct.AVChannelLayout = type { i32, i32, %union.anon.1, ptr }
%union.anon.1 = type { i64 }
%struct.AVRational = type { i32, i32 }
%struct.AVFilterFormatsConfig = type { ptr, ptr, ptr, ptr, ptr }

; Function Attrs: inlinehint nounwind uwtable
define internal i32 @av_lfg_get(ptr noundef %0) #5 {
  %2 = alloca ptr, align 8
  %3 = alloca i32, align 4
  store ptr %0, ptr %2, align 8, !tbaa !83
  call void @llvm.lifetime.start.p0(i64 4, ptr %3) #9
  %4 = load ptr, ptr %2, align 8, !tbaa !83
  %5 = getelementptr inbounds nuw %struct.AVLFG, ptr %4, i32 0, i32 0
  %6 = load ptr, ptr %2, align 8, !tbaa !83
  %7 = getelementptr inbounds nuw %struct.AVLFG, ptr %6, i32 0, i32 1
  %8 = load i32, ptr %7, align 4, !tbaa !85
  %9 = sub nsw i32 %8, 24
  %10 = and i32 %9, 63
  %11 = sext i32 %10 to i64
  %12 = getelementptr inbounds [64 x i32], ptr %5, i64 0, i64 %11
  %13 = load i32, ptr %12, align 4, !tbaa !9
  %14 = load ptr, ptr %2, align 8, !tbaa !83
  %15 = getelementptr inbounds nuw %struct.AVLFG, ptr %14, i32 0, i32 0
  %16 = load ptr, ptr %2, align 8, !tbaa !83
  %17 = getelementptr inbounds nuw %struct.AVLFG, ptr %16, i32 0, i32 1
  %18 = load i32, ptr %17, align 4, !tbaa !85
  %19 = sub nsw i32 %18, 55
  %20 = and i32 %19, 63
  %21 = sext i32 %20 to i64
  %22 = getelementptr inbounds [64 x i32], ptr %15, i64 0, i64 %21
  %23 = load i32, ptr %22, align 4, !tbaa !9
  %24 = add i32 %13, %23
  %25 = load ptr, ptr %2, align 8, !tbaa !83
  %26 = getelementptr inbounds nuw %struct.AVLFG, ptr %25, i32 0, i32 0
  %27 = load ptr, ptr %2, align 8, !tbaa !83
  %28 = getelementptr inbounds nuw %struct.AVLFG, ptr %27, i32 0, i32 1
  %29 = load i32, ptr %28, align 4, !tbaa !85
  %30 = and i32 %29, 63
  %31 = sext i32 %30 to i64
  %32 = getelementptr inbounds [64 x i32], ptr %26, i64 0, i64 %31
  store i32 %24, ptr %32, align 4, !tbaa !9
  store i32 %24, ptr %3, align 4, !tbaa !9
  %33 = load ptr, ptr %2, align 8, !tbaa !83
  %34 = getelementptr inbounds nuw %struct.AVLFG, ptr %33, i32 0, i32 1
  %35 = load i32, ptr %34, align 4, !tbaa !85
  %36 = add i32 %35, 1
  store i32 %36, ptr %34, align 4, !tbaa !85
  %37 = load i32, ptr %3, align 4, !tbaa !9
  call void @llvm.lifetime.end.p0(i64 4, ptr %3) #9
  ret i32 %37
}

; Function Attrs: nounwind uwtable
define internal i32 @filter_frame(ptr noundef %0, ptr noundef %1) #0 {
  %3 = alloca i32, align 4
  %4 = alloca ptr, align 8
  %5 = alloca ptr, align 8
  %6 = alloca ptr, align 8
  %7 = alloca ptr, align 8
  %8 = alloca ptr, align 8
  %9 = alloca %struct.ThreadData, align 8
  %10 = alloca ptr, align 8
  %11 = alloca i32, align 4
  %12 = alloca i32, align 4
  %13 = alloca i32, align 4
  %14 = alloca ptr, align 8
  store ptr %0, ptr %4, align 8, !tbaa !58
  store ptr %1, ptr %5, align 8, !tbaa !60
  call void @llvm.lifetime.start.p0(i64 8, ptr %6) #9
  %15 = load ptr, ptr %4, align 8, !tbaa !58
  %16 = getelementptr inbounds nuw %struct.AVFilterLink, ptr %15, i32 0, i32 2
  %17 = load ptr, ptr %16, align 8, !tbaa !62
  store ptr %17, ptr %6, align 8, !tbaa !18
  call void @llvm.lifetime.start.p0(i64 8, ptr %7) #9
  %18 = load ptr, ptr %6, align 8, !tbaa !18
  %19 = getelementptr inbounds nuw %struct.AVFilterContext, ptr %18, i32 0, i32 7
  %20 = load ptr, ptr %19, align 8, !tbaa !69
  %21 = getelementptr inbounds ptr, ptr %20, i64 0
  %22 = load ptr, ptr %21, align 8, !tbaa !58
  store ptr %22, ptr %7, align 8, !tbaa !58
  call void @llvm.lifetime.start.p0(i64 8, ptr %8) #9
  %23 = load ptr, ptr %6, align 8, !tbaa !18
  %24 = getelementptr inbounds nuw %struct.AVFilterContext, ptr %23, i32 0, i32 9
  %25 = load ptr, ptr %24, align 8, !tbaa !20
  store ptr %25, ptr %8, align 8, !tbaa !30
  call void @llvm.lifetime.start.p0(i64 16, ptr %9) #9
  call void @llvm.lifetime.start.p0(i64 8, ptr %10) #9
  call void @llvm.lifetime.start.p0(i64 4, ptr %11) #9
  call void @llvm.lifetime.start.p0(i64 4, ptr %12) #9
  %26 = load ptr, ptr %5, align 8, !tbaa !60
  %27 = call i32 @av_frame_is_writable(ptr noundef %26)
  %28 = icmp ne i32 %27, 0
  br i1 %28, label %29, label %31

29:                                               ; preds = %2
  %30 = load ptr, ptr %5, align 8, !tbaa !60
  store ptr %30, ptr %10, align 8, !tbaa !60
  br label %47

31:                                               ; preds = %2
  %32 = load ptr, ptr %7, align 8, !tbaa !58
  %33 = load ptr, ptr %7, align 8, !tbaa !58
  %34 = getelementptr inbounds nuw %struct.AVFilterLink, ptr %33, i32 0, i32 6
  %35 = load i32, ptr %34, align 8, !tbaa !70
  %36 = load ptr, ptr %7, align 8, !tbaa !58
  %37 = getelementptr inbounds nuw %struct.AVFilterLink, ptr %36, i32 0, i32 7
  %38 = load i32, ptr %37, align 4, !tbaa !71
  %39 = call ptr @ff_get_video_buffer(ptr noundef %32, i32 noundef %35, i32 noundef %38)
  store ptr %39, ptr %10, align 8, !tbaa !60
  %40 = load ptr, ptr %10, align 8, !tbaa !60
  %41 = icmp ne ptr %40, null
  br i1 %41, label %43, label %42

42:                                               ; preds = %31
  call void @av_frame_free(ptr noundef %5)
  store i32 -12, ptr %3, align 4
  store i32 1, ptr %13, align 4
  br label %131

43:                                               ; preds = %31
  %44 = load ptr, ptr %10, align 8, !tbaa !60
  %45 = load ptr, ptr %5, align 8, !tbaa !60
  %46 = call i32 @av_frame_copy_props(ptr noundef %44, ptr noundef %45)
  br label %47

47:                                               ; preds = %43, %29
  store i32 0, ptr %11, align 4, !tbaa !9
  br label %48

48:                                               ; preds = %93, %47
  %49 = load i32, ptr %11, align 4, !tbaa !9
  %50 = icmp slt i32 %49, 4
  br i1 %50, label %51, label %96

51:                                               ; preds = %48
  call void @llvm.lifetime.start.p0(i64 8, ptr %14) #9
  %52 = load ptr, ptr %8, align 8, !tbaa !30
  %53 = getelementptr inbounds nuw %struct.NoiseContext, ptr %52, i32 0, i32 5
  %54 = load i32, ptr %11, align 4, !tbaa !9
  %55 = sext i32 %54 to i64
  %56 = getelementptr inbounds [4 x %struct.FilterParams], ptr %53, i64 0, i64 %55
  store ptr %56, ptr %14, align 8, !tbaa !72
  %57 = load ptr, ptr %14, align 8, !tbaa !72
  %58 = getelementptr inbounds nuw %struct.FilterParams, ptr %57, i32 0, i32 7
  %59 = load i32, ptr %58, align 8, !tbaa !74
  %60 = icmp ne i32 %59, 0
  br i1 %60, label %61, label %67

61:                                               ; preds = %51
  %62 = load ptr, ptr %14, align 8, !tbaa !72
  %63 = getelementptr inbounds nuw %struct.FilterParams, ptr %62, i32 0, i32 1
  %64 = load i32, ptr %63, align 4, !tbaa !40
  %65 = and i32 %64, 2
  %66 = icmp ne i32 %65, 0
  br i1 %66, label %67, label %92

67:                                               ; preds = %61, %51
  %68 = load ptr, ptr %14, align 8, !tbaa !72
  %69 = getelementptr inbounds nuw %struct.FilterParams, ptr %68, i32 0, i32 0
  %70 = load i32, ptr %69, align 8, !tbaa !38
  %71 = icmp ne i32 %70, 0
  br i1 %71, label %72, label %92

72:                                               ; preds = %67
  store i32 0, ptr %12, align 4, !tbaa !9
  br label %73

73:                                               ; preds = %86, %72
  %74 = load i32, ptr %12, align 4, !tbaa !9
  %75 = icmp slt i32 %74, 4096
  br i1 %75, label %76, label %89

76:                                               ; preds = %73
  %77 = load ptr, ptr %14, align 8, !tbaa !72
  %78 = getelementptr inbounds nuw %struct.FilterParams, ptr %77, i32 0, i32 2
  %79 = call i32 @av_lfg_get(ptr noundef %78)
  %80 = and i32 %79, 1023
  %81 = load ptr, ptr %14, align 8, !tbaa !72
  %82 = getelementptr inbounds nuw %struct.FilterParams, ptr %81, i32 0, i32 6
  %83 = load i32, ptr %12, align 4, !tbaa !9
  %84 = sext i32 %83 to i64
  %85 = getelementptr inbounds [4096 x i32], ptr %82, i64 0, i64 %84
  store i32 %80, ptr %85, align 4, !tbaa !9
  br label %86

86:                                               ; preds = %76
  %87 = load i32, ptr %12, align 4, !tbaa !9
  %88 = add nsw i32 %87, 1
  store i32 %88, ptr %12, align 4, !tbaa !9
  br label %73, !llvm.loop !75

89:                                               ; preds = %73
  %90 = load ptr, ptr %14, align 8, !tbaa !72
  %91 = getelementptr inbounds nuw %struct.FilterParams, ptr %90, i32 0, i32 7
  store i32 1, ptr %91, align 8, !tbaa !74
  br label %92

92:                                               ; preds = %89, %67, %61
  call void @llvm.lifetime.end.p0(i64 8, ptr %14) #9
  br label %93

93:                                               ; preds = %92
  %94 = load i32, ptr %11, align 4, !tbaa !9
  %95 = add nsw i32 %94, 1
  store i32 %95, ptr %11, align 4, !tbaa !9
  br label %48, !llvm.loop !76

96:                                               ; preds = %48
  %97 = load ptr, ptr %5, align 8, !tbaa !60
  %98 = getelementptr inbounds nuw %struct.ThreadData, ptr %9, i32 0, i32 0
  store ptr %97, ptr %98, align 8, !tbaa !77
  %99 = load ptr, ptr %10, align 8, !tbaa !60
  %100 = getelementptr inbounds nuw %struct.ThreadData, ptr %9, i32 0, i32 1
  store ptr %99, ptr %100, align 8, !tbaa !79
  %101 = load ptr, ptr %6, align 8, !tbaa !18
  %102 = load ptr, ptr %8, align 8, !tbaa !30
  %103 = getelementptr inbounds nuw %struct.NoiseContext, ptr %102, i32 0, i32 3
  %104 = getelementptr inbounds [4 x i32], ptr %103, i64 0, i64 0
  %105 = load i32, ptr %104, align 4, !tbaa !9
  %106 = load ptr, ptr %6, align 8, !tbaa !18
  %107 = call i32 @ff_filter_get_nb_threads(ptr noundef %106) #12
  %108 = icmp sgt i32 %105, %107
  br i1 %108, label %109, label %112

109:                                              ; preds = %96
  %110 = load ptr, ptr %6, align 8, !tbaa !18
  %111 = call i32 @ff_filter_get_nb_threads(ptr noundef %110) #12
  br label %117

112:                                              ; preds = %96
  %113 = load ptr, ptr %8, align 8, !tbaa !30
  %114 = getelementptr inbounds nuw %struct.NoiseContext, ptr %113, i32 0, i32 3
  %115 = getelementptr inbounds [4 x i32], ptr %114, i64 0, i64 0
  %116 = load i32, ptr %115, align 4, !tbaa !9
  br label %117

117:                                              ; preds = %112, %109
  %118 = phi i32 [ %111, %109 ], [ %116, %112 ]
  %119 = call i32 @ff_filter_execute(ptr noundef %101, ptr noundef @filter_slice, ptr noundef %9, ptr noundef null, i32 noundef %118)
  br label %120

120:                                              ; preds = %117
  br label %121

121:                                              ; preds = %120
  br label %122

122:                                              ; preds = %121
  %123 = load ptr, ptr %5, align 8, !tbaa !60
  %124 = load ptr, ptr %10, align 8, !tbaa !60
  %125 = icmp ne ptr %123, %124
  br i1 %125, label %126, label %127

126:                                              ; preds = %122
  call void @av_frame_free(ptr noundef %5)
  br label %127

127:                                              ; preds = %126, %122
  %128 = load ptr, ptr %7, align 8, !tbaa !58
  %129 = load ptr, ptr %10, align 8, !tbaa !60
  %130 = call i32 @ff_filter_frame(ptr noundef %128, ptr noundef %129)
  store i32 %130, ptr %3, align 4
  store i32 1, ptr %13, align 4
  br label %131

131:                                              ; preds = %127, %42
  call void @llvm.lifetime.end.p0(i64 4, ptr %12) #9
  call void @llvm.lifetime.end.p0(i64 4, ptr %11) #9
  call void @llvm.lifetime.end.p0(i64 8, ptr %10) #9
  call void @llvm.lifetime.end.p0(i64 16, ptr %9) #9
  call void @llvm.lifetime.end.p0(i64 8, ptr %8) #9
  call void @llvm.lifetime.end.p0(i64 8, ptr %7) #9
  call void @llvm.lifetime.end.p0(i64 8, ptr %6) #9
  %132 = load i32, ptr %3, align 4
  ret i32 %132
}