; Function Attrs: nounwind uwtable
define internal i32 @filter_frame(ptr noundef readonly captures(none) %0, ptr noundef %1) #4 {
  %3 = alloca ptr, align 8
  %4 = alloca %struct.ThreadData, align 8
  store ptr %1, ptr %3, align 8, !tbaa !47
  %5 = getelementptr inbounds nuw i8, ptr %0, i64 16
  %6 = load ptr, ptr %5, align 8, !tbaa !49
  %7 = getelementptr inbounds nuw i8, ptr %6, i64 56
  %8 = load ptr, ptr %7, align 8, !tbaa !57
  %9 = load ptr, ptr %8, align 8, !tbaa !58
  %10 = getelementptr inbounds nuw i8, ptr %6, i64 72
  %11 = load ptr, ptr %10, align 8, !tbaa !13
  call void @llvm.lifetime.start.p0(i64 16, ptr nonnull %4) #10
  %12 = tail call i32 @av_frame_is_writable(ptr noundef %1) #10
  %.not = icmp eq i32 %12, 0
  br i1 %.not, label %13, label %22

13:                                               ; preds = %2
  %14 = getelementptr inbounds nuw i8, ptr %9, i64 40
  %15 = load i32, ptr %14, align 8, !tbaa !60
  %16 = getelementptr inbounds nuw i8, ptr %9, i64 44
  %17 = load i32, ptr %16, align 4, !tbaa !61
  %18 = tail call ptr @ff_get_video_buffer(ptr noundef %9, i32 noundef %15, i32 noundef %17) #10
  %.not36 = icmp eq ptr %18, null
  br i1 %.not36, label %19, label %20

19:                                               ; preds = %13
  call void @av_frame_free(ptr noundef nonnull %3) #10
  br label %68

20:                                               ; preds = %13
  %21 = tail call i32 @av_frame_copy_props(ptr noundef nonnull %18, ptr noundef %1) #10
  br label %22

22:                                               ; preds = %2, %20
  %.032 = phi ptr [ %18, %20 ], [ %1, %2 ]
  %23 = getelementptr inbounds nuw i8, ptr %11, i64 115024
  br label %24

24:                                               ; preds = %22, %57
  %indvars.iv44 = phi i64 [ 0, %22 ], [ %indvars.iv.next45, %57 ]
  %25 = getelementptr inbounds nuw [4 x %struct.FilterParams], ptr %23, i64 0, i64 %indvars.iv44
  %26 = getelementptr inbounds nuw i8, ptr %25, i64 114968
  %27 = load i32, ptr %26, align 8, !tbaa !62
  %.not38 = icmp eq i32 %27, 0
  br i1 %.not38, label %32, label %28

28:                                               ; preds = %24
  %29 = getelementptr inbounds nuw i8, ptr %25, i64 4
  %30 = load i32, ptr %29, align 4, !tbaa !33
  %31 = and i32 %30, 2
  %.not39 = icmp eq i32 %31, 0
  br i1 %.not39, label %57, label %32

32:                                               ; preds = %28, %24
  %33 = load i32, ptr %25, align 8, !tbaa !32
  %.not40 = icmp eq i32 %33, 0
  br i1 %.not40, label %57, label %.preheader

.preheader:                                       ; preds = %32
  %34 = getelementptr inbounds nuw i8, ptr %25, i64 8
  %35 = getelementptr inbounds nuw i8, ptr %25, i64 264
  %36 = getelementptr inbounds nuw i8, ptr %25, i64 98584
  %.promoted = load i32, ptr %35, align 4, !tbaa !63
  br label %37

37:                                               ; preds = %.preheader, %37
  %indvars.iv = phi i64 [ 0, %.preheader ], [ %indvars.iv.next, %37 ]
  %38 = phi i32 [ %.promoted, %.preheader ], [ %53, %37 ]
  %39 = add i32 %38, 40
  %40 = and i32 %39, 63
  %41 = zext nneg i32 %40 to i64
  %42 = getelementptr inbounds nuw [64 x i32], ptr %34, i64 0, i64 %41
  %43 = load i32, ptr %42, align 4, !tbaa !64
  %44 = add i32 %38, 9
  %45 = and i32 %44, 63
  %46 = zext nneg i32 %45 to i64
  %47 = getelementptr inbounds nuw [64 x i32], ptr %34, i64 0, i64 %46
  %48 = load i32, ptr %47, align 4, !tbaa !64
  %49 = add i32 %48, %43
  %50 = and i32 %38, 63
  %51 = zext nneg i32 %50 to i64
  %52 = getelementptr inbounds nuw [64 x i32], ptr %34, i64 0, i64 %51
  store i32 %49, ptr %52, align 4, !tbaa !64
  %53 = add i32 %38, 1
  %54 = and i32 %49, 1023
  %55 = getelementptr inbounds nuw [4096 x i32], ptr %36, i64 0, i64 %indvars.iv
  store i32 %54, ptr %55, align 4, !tbaa !64
  %indvars.iv.next = add nuw nsw i64 %indvars.iv, 1
  %exitcond.not = icmp eq i64 %indvars.iv.next, 4096
  br i1 %exitcond.not, label %56, label %37, !llvm.loop !65

56:                                               ; preds = %37
  store i32 %53, ptr %35, align 4, !tbaa !63
  store i32 1, ptr %26, align 8, !tbaa !62
  br label %57

57:                                               ; preds = %56, %32, %28
  %indvars.iv.next45 = add nuw nsw i64 %indvars.iv44, 1
  %exitcond47.not = icmp eq i64 %indvars.iv.next45, 4
  br i1 %exitcond47.not, label %58, label %24, !llvm.loop !66

58:                                               ; preds = %57
  store ptr %1, ptr %4, align 8, !tbaa !67
  %59 = getelementptr inbounds nuw i8, ptr %4, i64 8
  store ptr %.032, ptr %59, align 8, !tbaa !69
  %60 = getelementptr inbounds nuw i8, ptr %11, i64 28
  %61 = load i32, ptr %60, align 4, !tbaa !64
  %62 = tail call i32 @ff_filter_get_nb_threads(ptr noundef %6) #11
  %. = tail call i32 @llvm.smin.i32(i32 %61, i32 %62)
  %63 = call i32 @ff_filter_execute(ptr noundef %6, ptr noundef nonnull @filter_slice, ptr noundef nonnull %4, ptr noundef null, i32 noundef %.) #10
  %64 = load ptr, ptr %3, align 8, !tbaa !47
  %.not37 = icmp eq ptr %64, %.032
  br i1 %.not37, label %66, label %65

65:                                               ; preds = %58
  call void @av_frame_free(ptr noundef nonnull %3) #10
  br label %66

66:                                               ; preds = %65, %58
  %67 = call i32 @ff_filter_frame(ptr noundef %9, ptr noundef %.032) #10
  br label %68

68:                                               ; preds = %66, %19
  %.0 = phi i32 [ %67, %66 ], [ -12, %19 ]
  call void @llvm.lifetime.end.p0(i64 16, ptr nonnull %4) #10
  ret i32 %.0
}